target datalayout = "e-m:e-p270:32:32-p271:32:32-p272:64:64-i64:64-i128:128-f80:128-n8:16:32:64-S128"
target triple = "x86_64-pc-linux-gnu"

%struct.FilterParams = type { i32, double, ptr, ptr, ptr }

; Function Attrs: nounwind uwtable
define internal void @blend_heat_14bit(ptr noundef %0, i64 noundef %1, ptr noundef %2, i64 noundef %3, ptr noundef %4, i64 noundef %5, i64 noundef %6, i64 noundef %7, ptr noundef %8, ptr noundef %9) #0 {
  %11 = alloca ptr, align 8
  %12 = alloca i64, align 8
  %13 = alloca ptr, align 8
  %14 = alloca i64, align 8
  %15 = alloca ptr, align 8
  %16 = alloca i64, align 8
  %17 = alloca i64, align 8
  %18 = alloca i64, align 8
  %19 = alloca ptr, align 8
  %20 = alloca ptr, align 8
  %21 = alloca ptr, align 8
  %22 = alloca ptr, align 8
  %23 = alloca ptr, align 8
  %24 = alloca float, align 4
  %25 = alloca i32, align 4
  %26 = alloca i32, align 4
  %27 = alloca i32, align 4
  store ptr %0, ptr %11, align 8, !tbaa !46
  store i64 %1, ptr %12, align 8, !tbaa !88
  store ptr %2, ptr %13, align 8, !tbaa !46
  store i64 %3, ptr %14, align 8, !tbaa !88
  store ptr %4, ptr %15, align 8, !tbaa !46
  store i64 %5, ptr %16, align 8, !tbaa !88
  store i64 %6, ptr %17, align 8, !tbaa !88
  store i64 %7, ptr %18, align 8, !tbaa !88
  store ptr %8, ptr %19, align 8, !tbaa !77
  store ptr %9, ptr %20, align 8, !tbaa !89
  call void @llvm.lifetime.start.p0(i64 8, ptr %21) #12
  %28 = load ptr, ptr %11, align 8, !tbaa !46
  store ptr %28, ptr %21, align 8, !tbaa !103
  call void @llvm.lifetime.start.p0(i64 8, ptr %22) #12
  %29 = load ptr, ptr %13, align 8, !tbaa !46
  store ptr %29, ptr %22, align 8, !tbaa !103
  call void @llvm.lifetime.start.p0(i64 8, ptr %23) #12
  %30 = load ptr, ptr %15, align 8, !tbaa !46
  store ptr %30, ptr %23, align 8, !tbaa !103
  call void @llvm.lifetime.start.p0(i64 4, ptr %24) #12
  %31 = load ptr, ptr %19, align 8, !tbaa !77
  %32 = getelementptr inbounds nuw %struct.FilterParams, ptr %31, i32 0, i32 1
  %33 = load double, ptr %32, align 8, !tbaa !82
  %34 = fptrunc nsz double %33 to float
  store float %34, ptr %24, align 4, !tbaa !99
  %35 = load i64, ptr %16, align 8, !tbaa !88
  %36 = udiv i64 %35, 2
  store i64 %36, ptr %16, align 8, !tbaa !88
  %37 = load i64, ptr %12, align 8, !tbaa !88
  %38 = udiv i64 %37, 2
  store i64 %38, ptr %12, align 8, !tbaa !88
  %39 = load i64, ptr %14, align 8, !tbaa !88
  %40 = udiv i64 %39, 2
  store i64 %40, ptr %14, align 8, !tbaa !88
  call void @llvm.lifetime.start.p0(i64 4, ptr %25) #12
  store i32 0, ptr %25, align 4, !tbaa !37
  br label %41

41:                                               ; preds = %151, %10
  %42 = load i32, ptr %25, align 4, !tbaa !37
  %43 = sext i32 %42 to i64
  %44 = load i64, ptr %18, align 8, !tbaa !88
  %45 = icmp slt i64 %43, %44
  br i1 %45, label %47, label %46

46:                                               ; preds = %41
  store i32 2, ptr %26, align 4
  call void @llvm.lifetime.end.p0(i64 4, ptr %25) #12
  br label %154

47:                                               ; preds = %41
  call void @llvm.lifetime.start.p0(i64 4, ptr %27) #12
  store i32 0, ptr %27, align 4, !tbaa !37
  br label %48

48:                                               ; preds = %138, %47
  %49 = load i32, ptr %27, align 4, !tbaa !37
  %50 = sext i32 %49 to i64
  %51 = load i64, ptr %17, align 8, !tbaa !88
  %52 = icmp slt i64 %50, %51
  br i1 %52, label %54, label %53

53:                                               ; preds = %48
  store i32 5, ptr %26, align 4
  call void @llvm.lifetime.end.p0(i64 4, ptr %27) #12
  br label %141

54:                                               ; preds = %48
  %55 = load ptr, ptr %21, align 8, !tbaa !103
  %56 = load i32, ptr %27, align 4, !tbaa !37
  %57 = sext i32 %56 to i64
  %58 = getelementptr inbounds i16, ptr %55, i64 %57
  %59 = load i16, ptr %58, align 2, !tbaa !105
  %60 = zext i16 %59 to i32
  %61 = sitofp i32 %60 to float
  %62 = load ptr, ptr %21, align 8, !tbaa !103
  %63 = load i32, ptr %27, align 4, !tbaa !37
  %64 = sext i32 %63 to i64
  %65 = getelementptr inbounds i16, ptr %62, i64 %64
  %66 = load i16, ptr %65, align 2, !tbaa !105
  %67 = zext i16 %66 to i32
  %68 = icmp eq i32 %67, 0
  br i1 %68, label %69, label %70

69:                                               ; preds = %54
  br label %121

70:                                               ; preds = %54
  %71 = load ptr, ptr %22, align 8, !tbaa !103
  %72 = load i32, ptr %27, align 4, !tbaa !37
  %73 = sext i32 %72 to i64
  %74 = getelementptr inbounds i16, ptr %71, i64 %73
  %75 = load i16, ptr %74, align 2, !tbaa !105
  %76 = zext i16 %75 to i32
  %77 = sub nsw i32 16383, %76
  %78 = load ptr, ptr %22, align 8, !tbaa !103
  %79 = load i32, ptr %27, align 4, !tbaa !37
  %80 = sext i32 %79 to i64
  %81 = getelementptr inbounds i16, ptr %78, i64 %80
  %82 = load i16, ptr %81, align 2, !tbaa !105
  %83 = zext i16 %82 to i32
  %84 = sub nsw i32 16383, %83
  %85 = mul nsw i32 %77, %84
  %86 = load ptr, ptr %21, align 8, !tbaa !103
  %87 = load i32, ptr %27, align 4, !tbaa !37
  %88 = sext i32 %87 to i64
  %89 = getelementptr inbounds i16, ptr %86, i64 %88
  %90 = load i16, ptr %89, align 2, !tbaa !105
  %91 = zext i16 %90 to i32
  %92 = sdiv i32 %85, %91
  %93 = icmp sgt i32 %92, 16383
  br i1 %93, label %94, label %95

94:                                               ; preds = %70
  br label %118

95:                                               ; preds = %70
  %96 = load ptr, ptr %22, align 8, !tbaa !103
  %97 = load i32, ptr %27, align 4, !tbaa !37
  %98 = sext i32 %97 to i64
  %99 = getelementptr inbounds i16, ptr %96, i64 %98
  %100 = load i16, ptr %99, align 2, !tbaa !105
  %101 = zext i16 %100 to i32
  %102 = sub nsw i32 16383, %101
  %103 = load ptr, ptr %22, align 8, !tbaa !103
  %104 = load i32, ptr %27, align 4, !tbaa !37
  %105 = sext i32 %104 to i64
  %106 = getelementptr inbounds i16, ptr %103, i64 %105
  %107 = load i16, ptr %106, align 2, !tbaa !105
  %108 = zext i16 %107 to i32
  %109 = sub nsw i32 16383, %108
  %110 = mul nsw i32 %102, %109
  %111 = load ptr, ptr %21, align 8, !tbaa !103
  %112 = load i32, ptr %27, align 4, !tbaa !37
  %113 = sext i32 %112 to i64
  %114 = getelementptr inbounds i16, ptr %111, i64 %113
  %115 = load i16, ptr %114, align 2, !tbaa !105
  %116 = zext i16 %115 to i32
  %117 = sdiv i32 %110, %116
  br label %118

118:                                              ; preds = %95, %94
  %119 = phi i32 [ 16383, %94 ], [ %117, %95 ]
  %120 = sub nsw i32 16383, %119
  br label %121

121:                                              ; preds = %118, %69
  %122 = phi i32 [ 0, %69 ], [ %120, %118 ]
  %123 = load ptr, ptr %21, align 8, !tbaa !103
  %124 = load i32, ptr %27, align 4, !tbaa !37
  %125 = sext i32 %124 to i64
  %126 = getelementptr inbounds i16, ptr %123, i64 %125
  %127 = load i16, ptr %126, align 2, !tbaa !105
  %128 = zext i16 %127 to i32
  %129 = sub nsw i32 %122, %128
  %130 = sitofp i32 %129 to float
  %131 = load float, ptr %24, align 4, !tbaa !99
  %132 = call nsz float @llvm.fmuladd.f32(float %130, float %131, float %61)
  %133 = fptoui float %132 to i16
  %134 = load ptr, ptr %23, align 8, !tbaa !103
  %135 = load i32, ptr %27, align 4, !tbaa !37
  %136 = sext i32 %135 to i64
  %137 = getelementptr inbounds i16, ptr %134, i64 %136
  store i16 %133, ptr %137, align 2, !tbaa !105
  br label %138

138:                                              ; preds = %121
  %139 = load i32, ptr %27, align 4, !tbaa !37
  %140 = add nsw i32 %139, 1
  store i32 %140, ptr %27, align 4, !tbaa !37
  br label %48, !llvm.loop !460

141:                                              ; preds = %53
  %142 = load i64, ptr %16, align 8, !tbaa !88
  %143 = load ptr, ptr %23, align 8, !tbaa !103
  %144 = getelementptr inbounds i16, ptr %143, i64 %142
  store ptr %144, ptr %23, align 8, !tbaa !103
  %145 = load i64, ptr %12, align 8, !tbaa !88
  %146 = load ptr, ptr %21, align 8, !tbaa !103
  %147 = getelementptr inbounds i16, ptr %146, i64 %145
  store ptr %147, ptr %21, align 8, !tbaa !103
  %148 = load i64, ptr %14, align 8, !tbaa !88
  %149 = load ptr, ptr %22, align 8, !tbaa !103
  %150 = getelementptr inbounds i16, ptr %149, i64 %148
  store ptr %150, ptr %22, align 8, !tbaa !103
  br label %151

151:                                              ; preds = %141
  %152 = load i32, ptr %25, align 4, !tbaa !37
  %153 = add nsw i32 %152, 1
  store i32 %153, ptr %25, align 4, !tbaa !37
  br label %41, !llvm.loop !461

154:                                              ; preds = %46
  call void @llvm.lifetime.end.p0(i64 4, ptr %24) #12
  call void @llvm.lifetime.end.p0(i64 8, ptr %23) #12
  call void @llvm.lifetime.end.p0(i64 8, ptr %22) #12
  call void @llvm.lifetime.end.p0(i64 8, ptr %21) #12
  ret void
}